; Function Attrs: nounwind uwtable
define internal range(i32 0, 2) i32 @schedule_max_data(ptr noundef %0) #0 {
  %2 = getelementptr inbounds nuw i8, ptr %0, i64 512
  %3 = tail call i64 @ossl_quic_rxfc_get_cwm(ptr noundef nonnull %2) #8
  %4 = tail call i32 @ossl_quic_rxfc_on_rx_stream_frame(ptr noundef nonnull %2, i64 noundef %3, i32 noundef 0) #8
  %5 = icmp ne i32 %4, 0
  %6 = zext i1 %5 to i32
  %7 = tail call i32 @test_true(ptr noundef nonnull @.str.2, i32 noundef 380, ptr noundef nonnull @.str.105, i32 noundef %6) #8
  %.not = icmp eq i32 %7, 0
  br i1 %.not, label %13, label %8

8:                                                ; preds = %1
  %9 = tail call i32 @ossl_quic_rxfc_on_retire(ptr noundef nonnull %2, i64 noundef %3, i64 1000000) #8
  %10 = icmp ne i32 %9, 0
  %11 = zext i1 %10 to i32
  %12 = tail call i32 @test_true(ptr noundef nonnull @.str.2, i32 noundef 382, ptr noundef nonnull @.str.106, i32 noundef %11) #8
  %.not5 = icmp ne i32 %12, 0
  %spec.select = zext i1 %.not5 to i32
  br label %13

13:                                               ; preds = %8, %1
  %.0 = phi i32 [ 0, %1 ], [ %spec.select, %8 ]
  ret i32 %.0
}